; Function Attrs: mustprogress uwtable
define noundef nonnull align 8 dereferenceable(112) ptr @_ZN2mu11ParserErroraSERKS0_(ptr noundef nonnull returned align 8 dereferenceable(112) %0, ptr noundef nonnull align 8 dereferenceable(112) %1) local_unnamed_addr #9 align 2 {
  %3 = icmp eq ptr %0, %1
  br i1 %3, label %15, label %4

4:                                                ; preds = %2
  tail call void @_ZNSt7__cxx1112basic_stringIcSt11char_traitsIcESaIcEE9_M_assignERKS4_(ptr noundef nonnull align 8 dereferenceable(32) %0, ptr noundef nonnull align 8 dereferenceable(32) %1)
  %5 = getelementptr inbounds nuw i8, ptr %1, i64 32
  %6 = getelementptr inbounds nuw i8, ptr %0, i64 32
  tail call void @_ZNSt7__cxx1112basic_stringIcSt11char_traitsIcESaIcEE9_M_assignERKS4_(ptr noundef nonnull align 8 dereferenceable(32) %6, ptr noundef nonnull align 8 dereferenceable(32) %5)
  %7 = getelementptr inbounds nuw i8, ptr %1, i64 64
  %8 = getelementptr inbounds nuw i8, ptr %0, i64 64
  tail call void @_ZNSt7__cxx1112basic_stringIcSt11char_traitsIcESaIcEE9_M_assignERKS4_(ptr noundef nonnull align 8 dereferenceable(32) %8, ptr noundef nonnull align 8 dereferenceable(32) %7)
  %9 = getelementptr inbounds nuw i8, ptr %1, i64 96
  %10 = load i32, ptr %9, align 8, !tbaa !33
  %11 = getelementptr inbounds nuw i8, ptr %0, i64 96
  store i32 %10, ptr %11, align 8, !tbaa !33
  %12 = getelementptr inbounds nuw i8, ptr %1, i64 100
  %13 = load i32, ptr %12, align 4, !tbaa !38
  %14 = getelementptr inbounds nuw i8, ptr %0, i64 100
  store i32 %13, ptr %14, align 4, !tbaa !38
  br label %15

15:                                               ; preds = %2, %4
  ret ptr %0
}